; Function Attrs: mustprogress nofree norecurse nosync nounwind willreturn memory(none) uwtable
define noundef range(i32 0, 16) i32 @_ZN10duckdb_hll16hex_digit_to_intEc(i8 noundef signext %0) local_unnamed_addr #23 {
  switch i8 %0, label %16 [
    i8 70, label %15
    i8 49, label %17
    i8 50, label %2
    i8 51, label %3
    i8 52, label %4
    i8 53, label %5
    i8 54, label %6
    i8 55, label %7
    i8 56, label %8
    i8 57, label %9
    i8 97, label %10
    i8 65, label %10
    i8 98, label %11
    i8 66, label %11
    i8 99, label %12
    i8 67, label %12
    i8 100, label %13
    i8 68, label %13
    i8 101, label %14
    i8 69, label %14
    i8 102, label %15
  ]

2:                                                ; preds = %1
  br label %17

3:                                                ; preds = %1
  br label %17

4:                                                ; preds = %1
  br label %17

5:                                                ; preds = %1
  br label %17

6:                                                ; preds = %1
  br label %17

7:                                                ; preds = %1
  br label %17

8:                                                ; preds = %1
  br label %17

9:                                                ; preds = %1
  br label %17

10:                                               ; preds = %1, %1
  br label %17

11:                                               ; preds = %1, %1
  br label %17

12:                                               ; preds = %1, %1
  br label %17

13:                                               ; preds = %1, %1
  br label %17

14:                                               ; preds = %1, %1
  br label %17

15:                                               ; preds = %1, %1
  br label %17

16:                                               ; preds = %1
  br label %17

17:                                               ; preds = %1, %16, %15, %14, %13, %12, %11, %10, %9, %8, %7, %6, %5, %4, %3, %2
  %.0 = phi i32 [ 0, %16 ], [ 15, %15 ], [ 14, %14 ], [ 13, %13 ], [ 12, %12 ], [ 11, %11 ], [ 10, %10 ], [ 9, %9 ], [ 8, %8 ], [ 7, %7 ], [ 6, %6 ], [ 5, %5 ], [ 4, %4 ], [ 3, %3 ], [ 2, %2 ], [ 1, %1 ]
  ret i32 %.0
}